target datalayout = "e-m:e-p270:32:32-p271:32:32-p272:64:64-i64:64-i128:128-f80:128-n8:16:32:64-S128"
target triple = "x86_64-pc-linux-gnu"

%"class.OopOopIterateDispatch<BFSClosure>::Table" = type { [7 x ptr] }
%class.Klass = type <{ %class.Metadata, i32, i32, i32, i32, ptr, ptr, ptr, [8 x ptr], %class.OopHandle, ptr, ptr, ptr, ptr, ptr, i32, %class.AccessFlags, i64, i64, i8, i8, i16, i16, [2 x i8], i32, [4 x i8] }>
%class.Metadata = type { ptr }
%class.OopHandle = type { ptr }
%class.AccessFlags = type { i32 }
%class.OopIterateClosure = type { %class.OopClosure, ptr }
%class.OopClosure = type { ptr }
%class.BFSClosure = type <{ %class.BasicOopIterateClosure, ptr, ptr, ptr, ptr, i64, i64, i64, i64, i8, [7 x i8] }>
%class.BasicOopIterateClosure = type { %class.OopIterateClosure }
%struct.UnifiedOopRef = type { i64 }
%class.Edge = type { ptr, %struct.UnifiedOopRef }
%class.markWord = type { i64 }
%class.oopDesc = type { %class.markWord, %"union.oopDesc::_metadata" }
%"union.oopDesc::_metadata" = type { ptr }

@_ZN21OopOopIterateDispatchI10BFSClosureE6_tableE = linkonce_odr hidden global %"class.OopOopIterateDispatch<BFSClosure>::Table" zeroinitializer, comdat, align 8
@UseCompressedClassPointers = external global i8, align 1
@_ZN23CompressedKlassPointers5_baseE = external global ptr, align 8
@_ZN23CompressedKlassPointers6_shiftE = external global i32, align 4

; Function Attrs: mustprogress nounwind uwtable
define linkonce_odr hidden noundef ptr @_ZN23CompressedKlassPointers31decode_not_null_without_assertsEjPhi(i32 noundef %0, ptr noundef %1, i32 noundef %2) #1 comdat align 2 {
  %4 = alloca i32, align 4
  %5 = alloca ptr, align 8
  %6 = alloca i32, align 4
  store i32 %0, ptr %4, align 4
  store ptr %1, ptr %5, align 8
  store i32 %2, ptr %6, align 4
  %7 = load ptr, ptr %5, align 8
  %8 = ptrtoint ptr %7 to i64
  %9 = load i32, ptr %4, align 4
  %10 = zext i32 %9 to i64
  %11 = load i32, ptr %6, align 4
  %12 = zext i32 %11 to i64
  %13 = shl i64 %10, %12
  %14 = add i64 %8, %13
  %15 = inttoptr i64 %14 to ptr
  ret ptr %15
}

; Function Attrs: mustprogress nounwind uwtable
define linkonce_odr hidden noundef i32 @_ZN5Klass4kindEv(ptr noundef nonnull align 8 dereferenceable(196) %0) #1 comdat align 2 {
  %2 = alloca ptr, align 8
  store ptr %0, ptr %2, align 8
  %3 = load ptr, ptr %2, align 8
  %4 = getelementptr inbounds %class.Klass, ptr %3, i32 0, i32 2
  %5 = load i32, ptr %4, align 4
  ret i32 %5
}

; Function Attrs: mustprogress nounwind uwtable
define linkonce_odr hidden noundef ptr @_ZN23CompressedKlassPointers15decode_not_nullEjPhi(i32 noundef %0, ptr noundef %1, i32 noundef %2) #1 comdat align 2 {
  %4 = alloca i32, align 4
  %5 = alloca ptr, align 8
  %6 = alloca i32, align 4
  %7 = alloca ptr, align 8
  store i32 %0, ptr %4, align 4
  store ptr %1, ptr %5, align 8
  store i32 %2, ptr %6, align 4
  %8 = load i32, ptr %4, align 4
  %9 = load ptr, ptr %5, align 8
  %10 = load i32, ptr %6, align 4
  %11 = call noundef ptr @_ZN23CompressedKlassPointers31decode_not_null_without_assertsEjPhi(i32 noundef %8, ptr noundef %9, i32 noundef %10)
  store ptr %11, ptr %7, align 8
  %12 = load ptr, ptr %7, align 8
  ret ptr %12
}

; Function Attrs: mustprogress nounwind uwtable
define linkonce_odr hidden noundef i32 @_ZN23CompressedKlassPointers5shiftEv() #1 comdat align 2 {
  %1 = load i32, ptr @_ZN23CompressedKlassPointers6_shiftE, align 4
  ret i32 %1
}

; Function Attrs: mustprogress nounwind uwtable
define linkonce_odr hidden noundef ptr @_ZN23CompressedKlassPointers4baseEv() #1 comdat align 2 {
  %1 = load ptr, ptr @_ZN23CompressedKlassPointers5_baseE, align 8
  ret ptr %1
}

; Function Attrs: mustprogress nounwind uwtable
define linkonce_odr hidden noundef ptr @_ZN21OopOopIterateDispatchI10BFSClosureE8functionEP5Klass(ptr noundef %0) #1 comdat align 2 {
  %2 = alloca ptr, align 8
  store ptr %0, ptr %2, align 8
  %3 = load ptr, ptr %2, align 8
  %4 = call noundef i32 @_ZN5Klass4kindEv(ptr noundef nonnull align 8 dereferenceable(196) %3)
  %5 = sext i32 %4 to i64
  %6 = getelementptr inbounds [7 x ptr], ptr @_ZN21OopOopIterateDispatchI10BFSClosureE6_tableE, i64 0, i64 %5
  %7 = load ptr, ptr %6, align 8
  ret ptr %7
}

; Function Attrs: mustprogress nounwind uwtable
define linkonce_odr hidden noundef ptr @_ZN23CompressedKlassPointers15decode_not_nullEj(i32 noundef %0) #1 comdat align 2 {
  %2 = alloca i32, align 4
  store i32 %0, ptr %2, align 4
  %3 = load i32, ptr %2, align 4
  %4 = call noundef ptr @_ZN23CompressedKlassPointers4baseEv()
  %5 = call noundef i32 @_ZN23CompressedKlassPointers5shiftEv()
  %6 = call noundef ptr @_ZN23CompressedKlassPointers15decode_not_nullEjPhi(i32 noundef %3, ptr noundef %4, i32 noundef %5)
  ret ptr %6
}

; Function Attrs: mustprogress nounwind uwtable
define linkonce_odr hidden void @_ZN26OopIteratorClosureDispatch15oop_oop_iterateI10BFSClosureEEvPT_P7oopDescP5Klass(ptr noundef %0, ptr noundef %1, ptr noundef %2) #1 comdat align 2 {
  %4 = alloca ptr, align 8
  %5 = alloca ptr, align 8
  %6 = alloca ptr, align 8
  store ptr %0, ptr %4, align 8
  store ptr %1, ptr %5, align 8
  store ptr %2, ptr %6, align 8
  %7 = load ptr, ptr %6, align 8
  %8 = call noundef ptr @_ZN21OopOopIterateDispatchI10BFSClosureE8functionEP5Klass(ptr noundef %7)
  %9 = load ptr, ptr %4, align 8
  %10 = load ptr, ptr %5, align 8
  %11 = load ptr, ptr %6, align 8
  call void %8(ptr noundef %9, ptr noundef %10, ptr noundef %11)
  ret void
}

; Function Attrs: mustprogress nounwind uwtable
define linkonce_odr hidden noundef ptr @_ZNK7oopDesc5klassEv(ptr noundef nonnull align 8 dereferenceable(16) %0) #1 comdat align 2 {
  %2 = alloca ptr, align 8
  %3 = alloca ptr, align 8
  store ptr %0, ptr %3, align 8
  %4 = load ptr, ptr %3, align 8
  %5 = load i8, ptr @UseCompressedClassPointers, align 1
  %6 = trunc i8 %5 to i1
  br i1 %6, label %7, label %11

7:                                                ; preds = %1
  %8 = getelementptr inbounds %class.oopDesc, ptr %4, i32 0, i32 1
  %9 = load i32, ptr %8, align 8
  %10 = call noundef ptr @_ZN23CompressedKlassPointers15decode_not_nullEj(i32 noundef %9)
  store ptr %10, ptr %2, align 8
  br label %14

11:                                               ; preds = %1
  %12 = getelementptr inbounds %class.oopDesc, ptr %4, i32 0, i32 1
  %13 = load ptr, ptr %12, align 8
  store ptr %13, ptr %2, align 8
  br label %14

14:                                               ; preds = %11, %7
  %15 = load ptr, ptr %2, align 8
  ret ptr %15
}

; Function Attrs: mustprogress nounwind uwtable
define linkonce_odr hidden void @_ZN7oopDesc11oop_iterateI10BFSClosureEEvPT_(ptr noundef nonnull align 8 dereferenceable(16) %0, ptr noundef %1) #1 comdat align 2 {
  %3 = alloca ptr, align 8
  %4 = alloca ptr, align 8
  store ptr %0, ptr %3, align 8
  store ptr %1, ptr %4, align 8
  %5 = load ptr, ptr %3, align 8
  %6 = load ptr, ptr %4, align 8
  %7 = call noundef ptr @_ZNK7oopDesc5klassEv(ptr noundef nonnull align 8 dereferenceable(16) %5)
  call void @_ZN26OopIteratorClosureDispatch15oop_oop_iterateI10BFSClosureEEvPT_P7oopDescP5Klass(ptr noundef %6, ptr noundef %5, ptr noundef %7)
  ret void
}

; Function Attrs: mustprogress nounwind uwtable
define hidden void @_ZN10BFSClosure7iterateEPK4Edge(ptr noundef nonnull align 8 dereferenceable(81) %0, ptr noundef %1) #1 align 2 {
  %3 = alloca ptr, align 8
  %4 = alloca ptr, align 8
  %5 = alloca ptr, align 8
  store ptr %0, ptr %3, align 8
  store ptr %1, ptr %4, align 8
  %6 = load ptr, ptr %3, align 8
  %7 = load ptr, ptr %4, align 8
  %8 = call noundef ptr @_ZNK4Edge7pointeeEv(ptr noundef nonnull align 8 dereferenceable(16) %7)
  store ptr %8, ptr %5, align 8
  %9 = load ptr, ptr %4, align 8
  %10 = getelementptr inbounds %class.BFSClosure, ptr %6, i32 0, i32 4
  store ptr %9, ptr %10, align 8
  %11 = load ptr, ptr %5, align 8
  call void @_ZN7oopDesc11oop_iterateI10BFSClosureEEvPT_(ptr noundef nonnull align 8 dereferenceable(16) %11, ptr noundef %6)
  ret void
}

; Function Attrs: mustprogress nounwind uwtable
define hidden void @_ZN10BFSClosure7processE13UnifiedOopRefP7oopDesc(ptr noundef nonnull align 8 dereferenceable(81) %0, i64 %1, ptr noundef %2) #1 align 2 {
  %4 = alloca %struct.UnifiedOopRef, align 8
  %5 = alloca ptr, align 8
  %6 = alloca ptr, align 8
  %7 = alloca %struct.UnifiedOopRef, align 8
  %8 = getelementptr inbounds %struct.UnifiedOopRef, ptr %4, i32 0, i32 0
  store i64 %1, ptr %8, align 8
  store ptr %0, ptr %5, align 8
  store ptr %2, ptr %6, align 8
  %9 = load ptr, ptr %5, align 8
  call void @llvm.memcpy.p0.p0.i64(ptr align 8 %7, ptr align 8 %4, i64 8, i1 false)
  %10 = load ptr, ptr %6, align 8
  %11 = getelementptr inbounds %struct.UnifiedOopRef, ptr %7, i32 0, i32 0
  %12 = load i64, ptr %11, align 8
  call void @_ZN10BFSClosure12closure_implE13UnifiedOopRefP7oopDesc(ptr noundef nonnull align 8 dereferenceable(81) %9, i64 %12, ptr noundef %10)
  ret void
}

; Function Attrs: mustprogress nounwind uwtable
define linkonce_odr hidden i64 @_ZNK4Edge9referenceEv(ptr noundef nonnull align 8 dereferenceable(16) %0) #1 comdat align 2 {
  %2 = alloca %struct.UnifiedOopRef, align 8
  %3 = alloca ptr, align 8
  store ptr %0, ptr %3, align 8
  %4 = load ptr, ptr %3, align 8
  %5 = getelementptr inbounds %class.Edge, ptr %4, i32 0, i32 1
  call void @llvm.memcpy.p0.p0.i64(ptr align 8 %2, ptr align 8 %5, i64 8, i1 false)
  %6 = getelementptr inbounds %struct.UnifiedOopRef, ptr %2, i32 0, i32 0
  %7 = load i64, ptr %6, align 8
  ret i64 %7
}

; Function Attrs: mustprogress nounwind uwtable
define hidden void @_ZN10BFSClosure13process_queueEv(ptr noundef nonnull align 8 dereferenceable(81) %0) #1 align 2 {
  %2 = alloca ptr, align 8
  store ptr %0, ptr %2, align 8
  %3 = load ptr, ptr %2, align 8
  %4 = getelementptr inbounds %class.BFSClosure, ptr %3, i32 0, i32 1
  %5 = load ptr, ptr %4, align 8
  %6 = call noundef i64 @_ZNK9EdgeQueue3topEv(ptr noundef nonnull align 8 dereferenceable(40) %5)
  %7 = getelementptr inbounds %class.BFSClosure, ptr %3, i32 0, i32 6
  store i64 %6, ptr %7, align 8
  br label %8

8:                                                ; preds = %11, %1
  %9 = call noundef zeroext i1 @_ZNK10BFSClosure11is_completeEv(ptr noundef nonnull align 8 dereferenceable(81) %3)
  %10 = xor i1 %9, true
  br i1 %10, label %11, label %15

11:                                               ; preds = %8
  %12 = getelementptr inbounds %class.BFSClosure, ptr %3, i32 0, i32 1
  %13 = load ptr, ptr %12, align 8
  %14 = call noundef ptr @_ZNK9EdgeQueue6removeEv(ptr noundef nonnull align 8 dereferenceable(40) %13)
  call void @_ZN10BFSClosure7iterateEPK4Edge(ptr noundef nonnull align 8 dereferenceable(81) %3, ptr noundef %14)
  br label %8, !llvm.loop !8

15:                                               ; preds = %8
  ret void
}

; Function Attrs: mustprogress nounwind uwtable
define hidden void @_ZN10BFSClosure16process_root_setEv(ptr noundef nonnull align 8 dereferenceable(81) %0) #1 align 2 {
  %2 = alloca ptr, align 8
  %3 = alloca i64, align 8
  %4 = alloca ptr, align 8
  %5 = alloca %struct.UnifiedOopRef, align 8
  store ptr %0, ptr %2, align 8
  %6 = load ptr, ptr %2, align 8
  %7 = getelementptr inbounds %class.BFSClosure, ptr %6, i32 0, i32 1
  %8 = load ptr, ptr %7, align 8
  %9 = call noundef i64 @_ZNK9EdgeQueue6bottomEv(ptr noundef nonnull align 8 dereferenceable(40) %8)
  store i64 %9, ptr %3, align 8
  br label %10

10:                                               ; preds = %28, %1
  %11 = load i64, ptr %3, align 8
  %12 = getelementptr inbounds %class.BFSClosure, ptr %6, i32 0, i32 1
  %13 = load ptr, ptr %12, align 8
  %14 = call noundef i64 @_ZNK9EdgeQueue3topEv(ptr noundef nonnull align 8 dereferenceable(40) %13)
  %15 = icmp ult i64 %11, %14
  br i1 %15, label %16, label %31

16:                                               ; preds = %10
  %17 = getelementptr inbounds %class.BFSClosure, ptr %6, i32 0, i32 1
  %18 = load ptr, ptr %17, align 8
  %19 = load i64, ptr %3, align 8
  %20 = call noundef ptr @_ZNK9EdgeQueue10element_atEm(ptr noundef nonnull align 8 dereferenceable(40) %18, i64 noundef %19)
  store ptr %20, ptr %4, align 8
  %21 = load ptr, ptr %4, align 8
  %22 = call i64 @_ZNK4Edge9referenceEv(ptr noundef nonnull align 8 dereferenceable(16) %21)
  %23 = getelementptr inbounds %struct.UnifiedOopRef, ptr %5, i32 0, i32 0
  store i64 %22, ptr %23, align 8
  %24 = load ptr, ptr %4, align 8
  %25 = call noundef ptr @_ZNK4Edge7pointeeEv(ptr noundef nonnull align 8 dereferenceable(16) %24)
  %26 = getelementptr inbounds %struct.UnifiedOopRef, ptr %5, i32 0, i32 0
  %27 = load i64, ptr %26, align 8
  call void @_ZN10BFSClosure7processE13UnifiedOopRefP7oopDesc(ptr noundef nonnull align 8 dereferenceable(81) %6, i64 %27, ptr noundef %25)
  br label %28

28:                                               ; preds = %16
  %29 = load i64, ptr %3, align 8
  %30 = add i64 %29, 1
  store i64 %30, ptr %3, align 8
  br label %10, !llvm.loop !6

31:                                               ; preds = %10
  ret void
}

; Function Attrs: mustprogress nounwind uwtable
define hidden void @_ZN10BFSClosure7processEv(ptr noundef nonnull align 8 dereferenceable(81) %0) #1 align 2 {
  %2 = alloca ptr, align 8
  store ptr %0, ptr %2, align 8
  %3 = load ptr, ptr %2, align 8
  call void @_ZN10BFSClosure16process_root_setEv(ptr noundef nonnull align 8 dereferenceable(81) %3)
  call void @_ZN10BFSClosure13process_queueEv(ptr noundef nonnull align 8 dereferenceable(81) %3)
  ret void
}