; Function Attrs: mustprogress nounwind uwtable
define hidden void @_ZN10BFSClosure7processEv(ptr noundef nonnull align 8 dereferenceable(81) %0) local_unnamed_addr #1 align 2 {
  %2 = getelementptr inbounds i8, ptr %0, i64 16
  %3 = load ptr, ptr %2, align 8
  %4 = tail call noundef i64 @_ZNK9EdgeQueue6bottomEv(ptr noundef nonnull align 8 dereferenceable(40) %3) #12
  %5 = load ptr, ptr %2, align 8
  %6 = tail call noundef i64 @_ZNK9EdgeQueue3topEv(ptr noundef nonnull align 8 dereferenceable(40) %5) #12
  %7 = icmp ult i64 %4, %6
  br i1 %7, label %.lr.ph.i, label %_ZN10BFSClosure16process_root_setEv.exit

.lr.ph.i:                                         ; preds = %1, %.lr.ph.i
  %.05.i = phi i64 [ %12, %.lr.ph.i ], [ %4, %1 ]
  %8 = load ptr, ptr %2, align 8
  %9 = tail call noundef ptr @_ZNK9EdgeQueue10element_atEm(ptr noundef nonnull align 8 dereferenceable(40) %8, i64 noundef %.05.i) #12
  %10 = getelementptr inbounds i8, ptr %9, i64 8
  %.sroa.0.0.copyload.i.i = load i64, ptr %10, align 8
  %11 = tail call noundef ptr @_ZNK4Edge7pointeeEv(ptr noundef nonnull align 8 dereferenceable(16) %9) #12
  tail call void @_ZN10BFSClosure12closure_implE13UnifiedOopRefP7oopDesc(ptr noundef nonnull align 8 dereferenceable(81) %0, i64 %.sroa.0.0.copyload.i.i, ptr noundef %11)
  %12 = add nuw i64 %.05.i, 1
  %13 = load ptr, ptr %2, align 8
  %14 = tail call noundef i64 @_ZNK9EdgeQueue3topEv(ptr noundef nonnull align 8 dereferenceable(40) %13) #12
  %15 = icmp ult i64 %12, %14
  br i1 %15, label %.lr.ph.i, label %_ZN10BFSClosure16process_root_setEv.exit, !llvm.loop !6

_ZN10BFSClosure16process_root_setEv.exit:         ; preds = %.lr.ph.i, %1
  %16 = load ptr, ptr %2, align 8
  %17 = tail call noundef i64 @_ZNK9EdgeQueue3topEv(ptr noundef nonnull align 8 dereferenceable(40) %16) #12
  %18 = getelementptr inbounds i8, ptr %0, i64 56
  store i64 %17, ptr %18, align 8
  %19 = tail call noundef zeroext i1 @_ZNK10BFSClosure11is_completeEv(ptr noundef nonnull align 8 dereferenceable(81) %0)
  br i1 %19, label %_ZN10BFSClosure13process_queueEv.exit, label %.lr.ph.i1

.lr.ph.i1:                                        ; preds = %_ZN10BFSClosure16process_root_setEv.exit
  %20 = getelementptr inbounds i8, ptr %0, i64 40
  br label %21

21:                                               ; preds = %_ZN10BFSClosure7iterateEPK4Edge.exit.i, %.lr.ph.i1
  %22 = load ptr, ptr %2, align 8
  %23 = tail call noundef ptr @_ZNK9EdgeQueue6removeEv(ptr noundef nonnull align 8 dereferenceable(40) %22) #12
  %24 = tail call noundef ptr @_ZNK4Edge7pointeeEv(ptr noundef nonnull align 8 dereferenceable(16) %23) #12
  store ptr %23, ptr %20, align 8
  %25 = load i8, ptr @UseCompressedClassPointers, align 1
  %26 = trunc i8 %25 to i1
  %27 = getelementptr inbounds i8, ptr %24, i64 8
  br i1 %26, label %28, label %38

28:                                               ; preds = %21
  %29 = load i32, ptr %27, align 8
  %30 = load ptr, ptr @_ZN23CompressedKlassPointers5_baseE, align 8
  %31 = load i32, ptr @_ZN23CompressedKlassPointers6_shiftE, align 4
  %32 = ptrtoint ptr %30 to i64
  %33 = zext i32 %29 to i64
  %34 = zext nneg i32 %31 to i64
  %35 = shl i64 %33, %34
  %36 = add i64 %35, %32
  %37 = inttoptr i64 %36 to ptr
  br label %_ZN10BFSClosure7iterateEPK4Edge.exit.i

38:                                               ; preds = %21
  %39 = load ptr, ptr %27, align 8
  br label %_ZN10BFSClosure7iterateEPK4Edge.exit.i

_ZN10BFSClosure7iterateEPK4Edge.exit.i:           ; preds = %38, %28
  %.0.i.i.i.i = phi ptr [ %37, %28 ], [ %39, %38 ]
  %40 = getelementptr inbounds i8, ptr %.0.i.i.i.i, i64 12
  %41 = load i32, ptr %40, align 4
  %42 = sext i32 %41 to i64
  %43 = getelementptr inbounds [7 x ptr], ptr @_ZN21OopOopIterateDispatchI10BFSClosureE6_tableE, i64 0, i64 %42
  %44 = load ptr, ptr %43, align 8
  tail call void %44(ptr noundef nonnull %0, ptr noundef nonnull %24, ptr noundef %.0.i.i.i.i) #12
  %45 = tail call noundef zeroext i1 @_ZNK10BFSClosure11is_completeEv(ptr noundef nonnull align 8 dereferenceable(81) %0)
  br i1 %45, label %_ZN10BFSClosure13process_queueEv.exit, label %21, !llvm.loop !8

_ZN10BFSClosure13process_queueEv.exit:            ; preds = %_ZN10BFSClosure7iterateEPK4Edge.exit.i, %_ZN10BFSClosure16process_root_setEv.exit
  ret void
}